target datalayout = "e-m:e-p270:32:32-p271:32:32-p272:64:64-i64:64-i128:128-f80:128-n8:16:32:64-S128"
target triple = "x86_64-pc-linux-gnu"

%struct.AVComplexFloat = type { float, float }

; Function Attrs: nounwind uwtable
define internal void @import_row8(ptr noundef %0, ptr noundef %1, i32 noundef %2, float noundef %3, ptr noundef %4, i32 noundef %5) #2 {
  %7 = alloca ptr, align 8
  %8 = alloca ptr, align 8
  %9 = alloca i32, align 4
  %10 = alloca float, align 4
  %11 = alloca ptr, align 8
  %12 = alloca i32, align 4
  %13 = alloca i32, align 4
  %14 = alloca i32, align 4
  store ptr %0, ptr %7, align 8, !tbaa !85
  store ptr %1, ptr %8, align 8, !tbaa !59
  store i32 %2, ptr %9, align 4, !tbaa !24
  store float %3, ptr %10, align 4, !tbaa !75
  store ptr %4, ptr %11, align 8, !tbaa !87
  store i32 %5, ptr %12, align 4, !tbaa !24
  call void @llvm.lifetime.start.p0(i64 4, ptr %13) #11
  store i32 0, ptr %13, align 4, !tbaa !24
  br label %15

15:                                               ; preds = %50, %6
  %16 = load i32, ptr %13, align 4, !tbaa !24
  %17 = load i32, ptr %9, align 4, !tbaa !24
  %18 = icmp slt i32 %16, %17
  br i1 %18, label %20, label %19

19:                                               ; preds = %15
  call void @llvm.lifetime.end.p0(i64 4, ptr %13) #11
  br label %53

20:                                               ; preds = %15
  call void @llvm.lifetime.start.p0(i64 4, ptr %14) #11
  %21 = load i32, ptr %13, align 4, !tbaa !24
  %22 = load i32, ptr %12, align 4, !tbaa !24
  %23 = add nsw i32 %21, %22
  %24 = call i32 @llvm.abs.i32(i32 %23, i1 true)
  store i32 %24, ptr %14, align 4, !tbaa !24
  %25 = load ptr, ptr %8, align 8, !tbaa !59
  %26 = load i32, ptr %14, align 4, !tbaa !24
  %27 = sext i32 %26 to i64
  %28 = getelementptr inbounds i8, ptr %25, i64 %27
  %29 = load i8, ptr %28, align 1, !tbaa !128
  %30 = zext i8 %29 to i32
  %31 = sitofp i32 %30 to float
  %32 = load float, ptr %10, align 4, !tbaa !75
  %33 = fmul nsz float %31, %32
  %34 = load ptr, ptr %11, align 8, !tbaa !87
  %35 = load i32, ptr %13, align 4, !tbaa !24
  %36 = sext i32 %35 to i64
  %37 = getelementptr inbounds float, ptr %34, i64 %36
  %38 = load float, ptr %37, align 4, !tbaa !75
  %39 = fmul nsz float %33, %38
  %40 = load ptr, ptr %7, align 8, !tbaa !85
  %41 = load i32, ptr %13, align 4, !tbaa !24
  %42 = sext i32 %41 to i64
  %43 = getelementptr inbounds %struct.AVComplexFloat, ptr %40, i64 %42
  %44 = getelementptr inbounds nuw %struct.AVComplexFloat, ptr %43, i32 0, i32 0
  store float %39, ptr %44, align 4, !tbaa !98
  %45 = load ptr, ptr %7, align 8, !tbaa !85
  %46 = load i32, ptr %13, align 4, !tbaa !24
  %47 = sext i32 %46 to i64
  %48 = getelementptr inbounds %struct.AVComplexFloat, ptr %45, i64 %47
  %49 = getelementptr inbounds nuw %struct.AVComplexFloat, ptr %48, i32 0, i32 1
  store float 0.000000e+00, ptr %49, align 4, !tbaa !100
  call void @llvm.lifetime.end.p0(i64 4, ptr %14) #11
  br label %50

50:                                               ; preds = %20
  %51 = load i32, ptr %13, align 4, !tbaa !24
  %52 = add nsw i32 %51, 1
  store i32 %52, ptr %13, align 4, !tbaa !24
  br label %15, !llvm.loop !129

53:                                               ; preds = %19
  ret void
}