; Function Attrs: nofree norecurse nosync nounwind memory(argmem: readwrite) uwtable
define internal void @import_row8(ptr noundef writeonly captures(none) %0, ptr noundef readonly captures(none) %1, i32 noundef %2, float noundef %3, ptr noundef readonly captures(none) %4, i32 noundef %5) #5 {
  %7 = icmp sgt i32 %2, 0
  br i1 %7, label %.lr.ph.preheader, label %._crit_edge

.lr.ph.preheader:                                 ; preds = %6
  %wide.trip.count = zext nneg i32 %2 to i64
  br label %.lr.ph

._crit_edge:                                      ; preds = %.lr.ph, %6
  ret void

.lr.ph:                                           ; preds = %.lr.ph.preheader, %.lr.ph
  %indvars.iv = phi i64 [ 0, %.lr.ph.preheader ], [ %indvars.iv.next, %.lr.ph ]
  %8 = trunc i64 %indvars.iv to i32
  %9 = add i32 %5, %8
  %10 = tail call i32 @llvm.abs.i32(i32 %9, i1 true)
  %11 = zext nneg i32 %10 to i64
  %12 = getelementptr inbounds nuw i8, ptr %1, i64 %11
  %13 = load i8, ptr %12, align 1, !tbaa !140
  %14 = uitofp i8 %13 to float
  %15 = fmul nsz float %3, %14
  %16 = getelementptr inbounds nuw float, ptr %4, i64 %indvars.iv
  %17 = load float, ptr %16, align 4, !tbaa !68
  %18 = fmul nsz float %17, %15
  %19 = getelementptr inbounds nuw %struct.AVComplexFloat, ptr %0, i64 %indvars.iv
  store float %18, ptr %19, align 4, !tbaa !111
  %20 = getelementptr inbounds nuw i8, ptr %19, i64 4
  store float 0.000000e+00, ptr %20, align 4, !tbaa !113
  %indvars.iv.next = add nuw nsw i64 %indvars.iv, 1
  %exitcond.not = icmp eq i64 %indvars.iv.next, %wide.trip.count
  br i1 %exitcond.not, label %._crit_edge, label %.lr.ph, !llvm.loop !141
}